target datalayout = "e-m:e-p270:32:32-p271:32:32-p272:64:64-i64:64-i128:128-f80:128-n8:16:32:64-S128"
target triple = "x86_64-pc-linux-gnu"

%struct.Elf64_Shdr = type { i32, i32, i64, i64, i64, i64, i32, i32, i64, i64 }
%struct.Elf64_Sym = type { i32, i8, i8, i16, i64, i64 }

; Function Attrs: inlinehint mustprogress nounwind uwtable
define linkonce_odr noundef nonnull align 8 dereferenceable(8) ptr @_ZSt3minImERKT_S2_S2_(ptr noundef nonnull align 8 dereferenceable(8) %0, ptr noundef nonnull align 8 dereferenceable(8) %1) #11 comdat {
  %3 = alloca ptr, align 8
  %4 = alloca ptr, align 8
  %5 = alloca ptr, align 8
  store ptr %0, ptr %4, align 8, !tbaa !38
  store ptr %1, ptr %5, align 8, !tbaa !38
  %6 = load ptr, ptr %5, align 8, !tbaa !38
  %7 = load i64, ptr %6, align 8, !tbaa !11
  %8 = load ptr, ptr %4, align 8, !tbaa !38
  %9 = load i64, ptr %8, align 8, !tbaa !11
  %10 = icmp ult i64 %7, %9
  br i1 %10, label %11, label %13

11:                                               ; preds = %2
  %12 = load ptr, ptr %5, align 8, !tbaa !38
  store ptr %12, ptr %3, align 8
  br label %15

13:                                               ; preds = %2
  %14 = load ptr, ptr %4, align 8, !tbaa !38
  store ptr %14, ptr %3, align 8
  br label %15

15:                                               ; preds = %13, %11
  %16 = load ptr, ptr %3, align 8
  ret ptr %16
}

; Function Attrs: mustprogress noinline uwtable
define internal noundef zeroext i1 @_ZN6google24glog_internal_namespace_L10FindSymbolEmiPcmmPK10Elf64_ShdrS4_(i64 noundef %0, i32 noundef %1, ptr noundef %2, i64 noundef %3, i64 noundef %4, ptr noundef %5, ptr noundef %6) #5 {
  %8 = alloca i1, align 1
  %9 = alloca i64, align 8
  %10 = alloca i32, align 4
  %11 = alloca ptr, align 8
  %12 = alloca i64, align 8
  %13 = alloca i64, align 8
  %14 = alloca ptr, align 8
  %15 = alloca ptr, align 8
  %16 = alloca i64, align 8
  %17 = alloca i32, align 4
  %18 = alloca i32, align 4
  %19 = alloca i64, align 8
  %20 = alloca i64, align 8
  %21 = alloca [32 x %struct.Elf64_Sym], align 16
  %22 = alloca i64, align 8
  %23 = alloca i64, align 8
  %24 = alloca i64, align 8
  %25 = alloca i64, align 8
  %26 = alloca i32, align 4
  %27 = alloca ptr, align 8
  %28 = alloca i64, align 8
  %29 = alloca i64, align 8
  %30 = alloca i64, align 8
  store i64 %0, ptr %9, align 8, !tbaa !11
  store i32 %1, ptr %10, align 4, !tbaa !7
  store ptr %2, ptr %11, align 8, !tbaa !9
  store i64 %3, ptr %12, align 8, !tbaa !11
  store i64 %4, ptr %13, align 8, !tbaa !11
  store ptr %5, ptr %14, align 8, !tbaa !3
  store ptr %6, ptr %15, align 8, !tbaa !3
  %31 = load ptr, ptr %15, align 8, !tbaa !3
  %32 = icmp eq ptr %31, null
  br i1 %32, label %33, label %34

33:                                               ; preds = %7
  store i1 false, ptr %8, align 1
  br label %172

34:                                               ; preds = %7
  call void @llvm.lifetime.start.p0(i64 8, ptr %16) #14
  %35 = load ptr, ptr %15, align 8, !tbaa !3
  %36 = getelementptr inbounds nuw %struct.Elf64_Shdr, ptr %35, i32 0, i32 5
  %37 = load i64, ptr %36, align 8, !tbaa !81
  %38 = load ptr, ptr %15, align 8, !tbaa !3
  %39 = getelementptr inbounds nuw %struct.Elf64_Shdr, ptr %38, i32 0, i32 9
  %40 = load i64, ptr %39, align 8, !tbaa !82
  %41 = udiv i64 %37, %40
  store i64 %41, ptr %16, align 8, !tbaa !11
  call void @llvm.lifetime.start.p0(i64 4, ptr %17) #14
  store i32 0, ptr %17, align 4, !tbaa !7
  br label %42

42:                                               ; preds = %167, %34
  %43 = load i32, ptr %17, align 4, !tbaa !7
  %44 = zext i32 %43 to i64
  %45 = load i64, ptr %16, align 8, !tbaa !11
  %46 = icmp ult i64 %44, %45
  br i1 %46, label %48, label %47

47:                                               ; preds = %42
  store i32 2, ptr %18, align 4
  br label %168

48:                                               ; preds = %42
  call void @llvm.lifetime.start.p0(i64 8, ptr %19) #14
  %49 = load ptr, ptr %15, align 8, !tbaa !3
  %50 = getelementptr inbounds nuw %struct.Elf64_Shdr, ptr %49, i32 0, i32 4
  %51 = load i64, ptr %50, align 8, !tbaa !19
  %52 = load i32, ptr %17, align 4, !tbaa !7
  %53 = zext i32 %52 to i64
  %54 = load ptr, ptr %15, align 8, !tbaa !3
  %55 = getelementptr inbounds nuw %struct.Elf64_Shdr, ptr %54, i32 0, i32 9
  %56 = load i64, ptr %55, align 8, !tbaa !82
  %57 = mul i64 %53, %56
  %58 = add i64 %51, %57
  store i64 %58, ptr %19, align 8, !tbaa !11
  call void @llvm.lifetime.start.p0(i64 8, ptr %20) #14
  store i64 32, ptr %20, align 8, !tbaa !11
  call void @llvm.lifetime.start.p0(i64 768, ptr %21) #14
  call void @llvm.lifetime.start.p0(i64 8, ptr %22) #14
  call void @llvm.lifetime.start.p0(i64 8, ptr %23) #14
  %59 = load i64, ptr %16, align 8, !tbaa !11
  %60 = load i32, ptr %17, align 4, !tbaa !7
  %61 = zext i32 %60 to i64
  %62 = sub i64 %59, %61
  store i64 %62, ptr %23, align 8, !tbaa !11
  %63 = call noundef nonnull align 8 dereferenceable(8) ptr @_ZSt3minImERKT_S2_S2_(ptr noundef nonnull align 8 dereferenceable(8) %20, ptr noundef nonnull align 8 dereferenceable(8) %23)
  %64 = load i64, ptr %63, align 8, !tbaa !11
  call void @llvm.lifetime.end.p0(i64 8, ptr %23) #14
  store i64 %64, ptr %22, align 8, !tbaa !11
  call void @llvm.lifetime.start.p0(i64 8, ptr %24) #14
  %65 = load i32, ptr %10, align 4, !tbaa !7
  %66 = load i64, ptr %22, align 8, !tbaa !11
  %67 = mul i64 24, %66
  %68 = load i64, ptr %19, align 8, !tbaa !11
  %69 = call noundef i64 @_ZN6google24glog_internal_namespace_L14ReadFromOffsetEiPvmm(i32 noundef %65, ptr noundef %21, i64 noundef %67, i64 noundef %68)
  store i64 %69, ptr %24, align 8, !tbaa !11
  %70 = load i64, ptr %24, align 8, !tbaa !11
  %71 = urem i64 %70, 24
  %72 = icmp eq i64 %71, 0
  br i1 %72, label %73, label %74

73:                                               ; preds = %48
  br label %76

74:                                               ; preds = %48
  call void @abort() #16
  unreachable

75:                                               ; No predecessors!
  br label %76

76:                                               ; preds = %75, %73
  call void @llvm.lifetime.start.p0(i64 8, ptr %25) #14
  %77 = load i64, ptr %24, align 8, !tbaa !11
  %78 = udiv i64 %77, 24
  store i64 %78, ptr %25, align 8, !tbaa !11
  %79 = load i64, ptr %25, align 8, !tbaa !11
  %80 = load i64, ptr %22, align 8, !tbaa !11
  %81 = icmp ule i64 %79, %80
  br i1 %81, label %82, label %83

82:                                               ; preds = %76
  br label %85

83:                                               ; preds = %76
  call void @abort() #16
  unreachable

84:                                               ; No predecessors!
  br label %85

85:                                               ; preds = %84, %82
  call void @llvm.lifetime.start.p0(i64 4, ptr %26) #14
  store i32 0, ptr %26, align 4, !tbaa !7
  br label %86

86:                                               ; preds = %154, %85
  %87 = load i32, ptr %26, align 4, !tbaa !7
  %88 = zext i32 %87 to i64
  %89 = load i64, ptr %25, align 8, !tbaa !11
  %90 = icmp ult i64 %88, %89
  br i1 %90, label %92, label %91

91:                                               ; preds = %86
  store i32 4, ptr %18, align 4
  br label %157

92:                                               ; preds = %86
  call void @llvm.lifetime.start.p0(i64 8, ptr %27) #14
  %93 = load i32, ptr %26, align 4, !tbaa !7
  %94 = zext i32 %93 to i64
  %95 = getelementptr inbounds nuw [32 x %struct.Elf64_Sym], ptr %21, i64 0, i64 %94
  store ptr %95, ptr %27, align 8, !tbaa !3
  call void @llvm.lifetime.start.p0(i64 8, ptr %28) #14
  %96 = load ptr, ptr %27, align 8, !tbaa !3
  %97 = getelementptr inbounds nuw %struct.Elf64_Sym, ptr %96, i32 0, i32 4
  %98 = load i64, ptr %97, align 8, !tbaa !83
  store i64 %98, ptr %28, align 8, !tbaa !11
  %99 = load i64, ptr %13, align 8, !tbaa !11
  %100 = load i64, ptr %28, align 8, !tbaa !11
  %101 = add i64 %100, %99
  store i64 %101, ptr %28, align 8, !tbaa !11
  call void @llvm.lifetime.start.p0(i64 8, ptr %29) #14
  %102 = load i64, ptr %28, align 8, !tbaa !11
  %103 = load ptr, ptr %27, align 8, !tbaa !3
  %104 = getelementptr inbounds nuw %struct.Elf64_Sym, ptr %103, i32 0, i32 5
  %105 = load i64, ptr %104, align 8, !tbaa !85
  %106 = add i64 %102, %105
  store i64 %106, ptr %29, align 8, !tbaa !11
  %107 = load ptr, ptr %27, align 8, !tbaa !3
  %108 = getelementptr inbounds nuw %struct.Elf64_Sym, ptr %107, i32 0, i32 4
  %109 = load i64, ptr %108, align 8, !tbaa !83
  %110 = icmp ne i64 %109, 0
  br i1 %110, label %111, label %150

111:                                              ; preds = %92
  %112 = load ptr, ptr %27, align 8, !tbaa !3
  %113 = getelementptr inbounds nuw %struct.Elf64_Sym, ptr %112, i32 0, i32 3
  %114 = load i16, ptr %113, align 2, !tbaa !86
  %115 = zext i16 %114 to i32
  %116 = icmp ne i32 %115, 0
  br i1 %116, label %117, label %150

117:                                              ; preds = %111
  %118 = load i64, ptr %28, align 8, !tbaa !11
  %119 = load i64, ptr %9, align 8, !tbaa !11
  %120 = icmp ule i64 %118, %119
  br i1 %120, label %121, label %150

121:                                              ; preds = %117
  %122 = load i64, ptr %9, align 8, !tbaa !11
  %123 = load i64, ptr %29, align 8, !tbaa !11
  %124 = icmp ult i64 %122, %123
  br i1 %124, label %125, label %150

125:                                              ; preds = %121
  call void @llvm.lifetime.start.p0(i64 8, ptr %30) #14
  %126 = load i32, ptr %10, align 4, !tbaa !7
  %127 = load ptr, ptr %11, align 8, !tbaa !9
  %128 = load i64, ptr %12, align 8, !tbaa !11
  %129 = load ptr, ptr %14, align 8, !tbaa !3
  %130 = getelementptr inbounds nuw %struct.Elf64_Shdr, ptr %129, i32 0, i32 4
  %131 = load i64, ptr %130, align 8, !tbaa !19
  %132 = load ptr, ptr %27, align 8, !tbaa !3
  %133 = getelementptr inbounds nuw %struct.Elf64_Sym, ptr %132, i32 0, i32 0
  %134 = load i32, ptr %133, align 8, !tbaa !87
  %135 = zext i32 %134 to i64
  %136 = add i64 %131, %135
  %137 = call noundef i64 @_ZN6google24glog_internal_namespace_L14ReadFromOffsetEiPvmm(i32 noundef %126, ptr noundef %127, i64 noundef %128, i64 noundef %136)
  store i64 %137, ptr %30, align 8, !tbaa !11
  %138 = load i64, ptr %30, align 8, !tbaa !11
  %139 = icmp sle i64 %138, 0
  br i1 %139, label %145, label %140

140:                                              ; preds = %125
  %141 = load ptr, ptr %11, align 8, !tbaa !9
  %142 = load i64, ptr %12, align 8, !tbaa !11
  %143 = call noundef ptr @memchr(ptr noundef %141, i32 noundef 0, i64 noundef %142) #15
  %144 = icmp eq ptr %143, null
  br i1 %144, label %145, label %148

145:                                              ; preds = %140, %125
  %146 = load ptr, ptr %11, align 8, !tbaa !9
  %147 = load i64, ptr %12, align 8, !tbaa !11
  call void @llvm.memset.p0.i64(ptr align 1 %146, i8 0, i64 %147, i1 false)
  store i1 false, ptr %8, align 1
  store i32 1, ptr %18, align 4
  br label %149

148:                                              ; preds = %140
  store i1 true, ptr %8, align 1
  store i32 1, ptr %18, align 4
  br label %149

149:                                              ; preds = %148, %145
  call void @llvm.lifetime.end.p0(i64 8, ptr %30) #14
  br label %151

150:                                              ; preds = %121, %117, %111, %92
  store i32 0, ptr %18, align 4
  br label %151

151:                                              ; preds = %150, %149
  call void @llvm.lifetime.end.p0(i64 8, ptr %29) #14
  call void @llvm.lifetime.end.p0(i64 8, ptr %28) #14
  call void @llvm.lifetime.end.p0(i64 8, ptr %27) #14
  %152 = load i32, ptr %18, align 4
  switch i32 %152, label %157 [
    i32 0, label %153
  ]

153:                                              ; preds = %151
  br label %154

154:                                              ; preds = %153
  %155 = load i32, ptr %26, align 4, !tbaa !7
  %156 = add i32 %155, 1
  store i32 %156, ptr %26, align 4, !tbaa !7
  br label %86, !llvm.loop !88

157:                                              ; preds = %151, %91
  call void @llvm.lifetime.end.p0(i64 4, ptr %26) #14
  %158 = load i32, ptr %18, align 4
  switch i32 %158, label %165 [
    i32 4, label %159
  ]

159:                                              ; preds = %157
  %160 = load i64, ptr %25, align 8, !tbaa !11
  %161 = load i32, ptr %17, align 4, !tbaa !7
  %162 = zext i32 %161 to i64
  %163 = add i64 %162, %160
  %164 = trunc i64 %163 to i32
  store i32 %164, ptr %17, align 4, !tbaa !7
  store i32 0, ptr %18, align 4
  br label %165

165:                                              ; preds = %159, %157
  call void @llvm.lifetime.end.p0(i64 8, ptr %25) #14
  call void @llvm.lifetime.end.p0(i64 8, ptr %24) #14
  call void @llvm.lifetime.end.p0(i64 8, ptr %22) #14
  call void @llvm.lifetime.end.p0(i64 768, ptr %21) #14
  call void @llvm.lifetime.end.p0(i64 8, ptr %20) #14
  call void @llvm.lifetime.end.p0(i64 8, ptr %19) #14
  %166 = load i32, ptr %18, align 4
  switch i32 %166, label %168 [
    i32 0, label %167
  ]

167:                                              ; preds = %165
  br label %42, !llvm.loop !89

168:                                              ; preds = %165, %47
  call void @llvm.lifetime.end.p0(i64 4, ptr %17) #14
  %169 = load i32, ptr %18, align 4
  switch i32 %169, label %171 [
    i32 2, label %170
  ]

170:                                              ; preds = %168
  store i1 false, ptr %8, align 1
  store i32 1, ptr %18, align 4
  br label %171

171:                                              ; preds = %170, %168
  call void @llvm.lifetime.end.p0(i64 8, ptr %16) #14
  br label %172

172:                                              ; preds = %171, %33
  %173 = load i1, ptr %8, align 1
  ret i1 %173
}