; Function Attrs: mustprogress nofree noinline uwtable
define internal fastcc noundef zeroext i1 @_ZN6google24glog_internal_namespace_L10FindSymbolEmiPcmmPK10Elf64_ShdrS4_(i64 noundef %0, i32 noundef %1, ptr noundef %2, i64 noundef %3, i64 noundef %4, i64 %.24.val, ptr noundef nonnull readonly captures(none) %5) unnamed_addr #17 {
  %7 = alloca [32 x %struct.Elf64_Sym], align 16
  %8 = getelementptr inbounds nuw i8, ptr %5, i64 32
  %9 = load i64, ptr %8, align 8, !tbaa !45
  %10 = getelementptr inbounds nuw i8, ptr %5, i64 56
  %11 = load i64, ptr %10, align 8, !tbaa !46
  %12 = udiv i64 %9, %11
  %13 = getelementptr inbounds nuw i8, ptr %5, i64 24
  %14 = icmp sgt i32 %1, -1
  %.not.i = icmp slt i64 %3, 0
  %.not6932.not = icmp ugt i64 %11, %9
  br i1 %.not6932.not, label %.loopexit24, label %.lr.ph34

.lr.ph34:                                         ; preds = %6, %.loopexit
  %15 = phi i64 [ %74, %.loopexit ], [ 0, %6 ]
  %.05133 = phi i32 [ %73, %.loopexit ], [ 0, %6 ]
  %16 = load i64, ptr %13, align 8, !tbaa !47
  %17 = load i64, ptr %10, align 8, !tbaa !46
  %18 = mul i64 %17, %15
  %19 = add i64 %18, %16
  call void @llvm.lifetime.start.p0(i64 768, ptr nonnull %7) #20
  %20 = sub nuw i64 %12, %15
  %.sroa.speculated = tail call i64 @llvm.umin.i64(i64 %20, i64 32)
  %21 = mul nuw nsw i64 %.sroa.speculated, 24
  %22 = call fastcc noundef i64 @_ZN6google24glog_internal_namespace_L14ReadFromOffsetEiPvmm(i32 noundef %1, ptr noundef nonnull %7, i64 noundef %21, i64 noundef %19)
  %23 = urem i64 %22, 24
  %24 = udiv i64 %22, 24
  %25 = icmp eq i64 %23, 0
  br i1 %25, label %27, label %26

26:                                               ; preds = %.lr.ph34
  tail call void @abort() #21
  unreachable

27:                                               ; preds = %.lr.ph34
  %.not = icmp samesign ugt i64 %24, %.sroa.speculated
  br i1 %.not, label %28, label %.preheader

.preheader:                                       ; preds = %27
  %.not68.not14 = icmp ugt i64 %22, 23
  br i1 %.not68.not14, label %.lr.ph, label %.loopexit

28:                                               ; preds = %27
  tail call void @abort() #21
  unreachable

.lr.ph:                                           ; preds = %.preheader, %69
  %29 = phi i64 [ %71, %69 ], [ 0, %.preheader ]
  %.05815 = phi i32 [ %70, %69 ], [ 0, %.preheader ]
  %30 = getelementptr inbounds nuw [32 x %struct.Elf64_Sym], ptr %7, i64 0, i64 %29
  %31 = getelementptr inbounds nuw i8, ptr %30, i64 8
  %32 = load i64, ptr %31, align 8, !tbaa !48
  %.not65 = icmp eq i64 %32, 0
  br i1 %.not65, label %69, label %33

33:                                               ; preds = %.lr.ph
  %34 = add i64 %32, %4
  %35 = getelementptr inbounds nuw i8, ptr %30, i64 16
  %36 = load i64, ptr %35, align 8, !tbaa !50
  %37 = add i64 %36, %34
  %38 = getelementptr inbounds nuw i8, ptr %30, i64 6
  %39 = load i16, ptr %38, align 2, !tbaa !51
  %.not66 = icmp ne i16 %39, 0
  %.not67 = icmp ule i64 %34, %0
  %or.cond.not8 = and i1 %.not67, %.not66
  %40 = icmp ult i64 %0, %37
  %or.cond70 = select i1 %or.cond.not8, i1 %40, i1 false
  br i1 %or.cond70, label %41, label %69

41:                                               ; preds = %33
  %42 = load i32, ptr %30, align 8, !tbaa !52
  %43 = zext i32 %42 to i64
  %44 = add i64 %.24.val, %43
  br i1 %14, label %46, label %45

45:                                               ; preds = %41
  tail call void @abort() #21
  unreachable

46:                                               ; preds = %41
  br i1 %.not.i, label %47, label %.preheader.i

47:                                               ; preds = %46
  tail call void @abort() #21
  unreachable

.preheader.i:                                     ; preds = %46, %"_ZN6google24glog_internal_namespace_12_GLOBAL__N_112FailureRetryIZNS0_L14ReadFromOffsetEiPvmmE3$_0EEDaT_i.exit.i"
  %.021.i = phi i64 [ %.223.i, %"_ZN6google24glog_internal_namespace_12_GLOBAL__N_112FailureRetryIZNS0_L14ReadFromOffsetEiPvmmE3$_0EEDaT_i.exit.i" ], [ 0, %46 ]
  %48 = icmp ult i64 %.021.i, %3
  br i1 %48, label %49, label %63

49:                                               ; preds = %.preheader.i
  %50 = getelementptr inbounds nuw i8, ptr %2, i64 %.021.i
  %51 = sub nuw i64 %3, %.021.i
  %52 = add i64 %44, %.021.i
  br label %53

53:                                               ; preds = %56, %49
  %54 = tail call noundef i64 @pread(i32 noundef %1, ptr noundef %50, i64 noundef %51, i64 noundef %52)
  %55 = icmp eq i64 %54, -1
  br i1 %55, label %56, label %"_ZN6google24glog_internal_namespace_12_GLOBAL__N_112FailureRetryIZNS0_L14ReadFromOffsetEiPvmmE3$_0EEDaT_i.exit.i"

56:                                               ; preds = %53
  %57 = tail call ptr @__errno_location() #22
  %58 = load i32, ptr %57, align 4, !tbaa !7
  %59 = icmp eq i32 %58, 4
  br i1 %59, label %53, label %_ZN6google24glog_internal_namespace_L14ReadFromOffsetEiPvmm.exit.thread, !llvm.loop !9

"_ZN6google24glog_internal_namespace_12_GLOBAL__N_112FailureRetryIZNS0_L14ReadFromOffsetEiPvmmE3$_0EEDaT_i.exit.i": ; preds = %53
  %60 = icmp slt i64 %54, 0
  %61 = icmp eq i64 %54, 0
  %spec.select28.i = select i1 %61, i32 3, i32 0
  %62 = tail call i64 @llvm.smax.i64(i64 %54, i64 0)
  %.223.i = add i64 %62, %.021.i
  %.0.i = select i1 %60, i32 1, i32 %spec.select28.i
  switch i32 %.0.i, label %_ZN6google24glog_internal_namespace_L14ReadFromOffsetEiPvmm.exit.thread [
    i32 0, label %.preheader.i
    i32 3, label %63
  ], !llvm.loop !11

63:                                               ; preds = %"_ZN6google24glog_internal_namespace_12_GLOBAL__N_112FailureRetryIZNS0_L14ReadFromOffsetEiPvmmE3$_0EEDaT_i.exit.i", %.preheader.i
  %.122.i = phi i64 [ %.223.i, %"_ZN6google24glog_internal_namespace_12_GLOBAL__N_112FailureRetryIZNS0_L14ReadFromOffsetEiPvmmE3$_0EEDaT_i.exit.i" ], [ %.021.i, %.preheader.i ]
  %.not27.i = icmp ugt i64 %.122.i, %3
  br i1 %.not27.i, label %64, label %_ZN6google24glog_internal_namespace_L14ReadFromOffsetEiPvmm.exit

64:                                               ; preds = %63
  tail call void @abort() #21
  unreachable

_ZN6google24glog_internal_namespace_L14ReadFromOffsetEiPvmm.exit: ; preds = %63
  %65 = icmp slt i64 %.122.i, 1
  br i1 %65, label %_ZN6google24glog_internal_namespace_L14ReadFromOffsetEiPvmm.exit.thread, label %66

66:                                               ; preds = %_ZN6google24glog_internal_namespace_L14ReadFromOffsetEiPvmm.exit
  %67 = tail call noundef ptr @memchr(ptr noundef %2, i32 noundef 0, i64 noundef %3) #23
  %68 = icmp eq ptr %67, null
  br i1 %68, label %_ZN6google24glog_internal_namespace_L14ReadFromOffsetEiPvmm.exit.thread, label %.loopexit.thread

_ZN6google24glog_internal_namespace_L14ReadFromOffsetEiPvmm.exit.thread: ; preds = %"_ZN6google24glog_internal_namespace_12_GLOBAL__N_112FailureRetryIZNS0_L14ReadFromOffsetEiPvmmE3$_0EEDaT_i.exit.i", %56, %66, %_ZN6google24glog_internal_namespace_L14ReadFromOffsetEiPvmm.exit
  tail call void @llvm.memset.p0.i64(ptr align 1 %2, i8 0, i64 %3, i1 false)
  br label %.loopexit.thread

69:                                               ; preds = %33, %.lr.ph
  %70 = add i32 %.05815, 1
  %71 = zext i32 %70 to i64
  %.not68.not = icmp samesign ugt i64 %24, %71
  br i1 %.not68.not, label %.lr.ph, label %.loopexit, !llvm.loop !53

.loopexit.thread:                                 ; preds = %_ZN6google24glog_internal_namespace_L14ReadFromOffsetEiPvmm.exit.thread, %66
  %.4.ph = phi i1 [ true, %66 ], [ false, %_ZN6google24glog_internal_namespace_L14ReadFromOffsetEiPvmm.exit.thread ]
  call void @llvm.lifetime.end.p0(i64 768, ptr nonnull %7) #20
  br label %.loopexit24

.loopexit:                                        ; preds = %69, %.preheader
  %72 = trunc i64 %24 to i32
  %73 = add i32 %.05133, %72
  call void @llvm.lifetime.end.p0(i64 768, ptr nonnull %7) #20
  %74 = zext i32 %73 to i64
  %.not69 = icmp ugt i64 %12, %74
  br i1 %.not69, label %.lr.ph34, label %.loopexit24, !llvm.loop !54

.loopexit24:                                      ; preds = %.loopexit, %6, %.loopexit.thread
  %spec.select = phi i1 [ %.4.ph, %.loopexit.thread ], [ false, %6 ], [ false, %.loopexit ]
  ret i1 %spec.select
}